
complex.c.o:     file format elf32-littleriscv


Disassembly of section .plt:

00010290 <_PROCEDURE_LINKAGE_TABLE_>:
   10290:	97 23 00 00 33 03 c3 41 03 ae 03 d7 13 03 43 fd     .#..3..A......C.
   102a0:	93 82 03 d7 13 53 23 00 83 a2 42 00 67 00 0e 00     .....S#...B.g...

000102b0 <__libc_start_main@plt>:
   102b0:	00002e17          	auipc	t3,0x2
   102b4:	d58e2e03          	lw	t3,-680(t3) # 12008 <__libc_start_main@GLIBC_2.34>
   102b8:	000e0367          	jalr	t1,t3
   102bc:	00000013          	nop

Disassembly of section .text:

000102c0 <_start>:
   102c0:	2839                	jal	102de <load_gp>
   102c2:	87aa                	mv	a5,a0
   102c4:	00000517          	auipc	a0,0x0
   102c8:	12c50513          	add	a0,a0,300 # 103f0 <main>
   102cc:	4582                	lw	a1,0(sp)
   102ce:	0050                	add	a2,sp,4
   102d0:	ff017113          	and	sp,sp,-16
   102d4:	4681                	li	a3,0
   102d6:	4701                	li	a4,0
   102d8:	880a                	mv	a6,sp
   102da:	3fd9                	jal	102b0 <__libc_start_main@plt>
   102dc:	9002                	ebreak

000102de <load_gp>:
   102de:	00002197          	auipc	gp,0x2
   102e2:	52218193          	add	gp,gp,1314 # 12800 <__global_pointer$>
   102e6:	8082                	ret
	...

000102ea <deregister_tm_clones>:
   102ea:	6549                	lui	a0,0x12
   102ec:	6749                	lui	a4,0x12
   102ee:	00050793          	mv	a5,a0
   102f2:	00070713          	mv	a4,a4
   102f6:	00f70863          	beq	a4,a5,10306 <deregister_tm_clones+0x1c>
   102fa:	00000793          	li	a5,0
   102fe:	c781                	beqz	a5,10306 <deregister_tm_clones+0x1c>
   10300:	00050513          	mv	a0,a0
   10304:	8782                	jr	a5
   10306:	8082                	ret

00010308 <register_tm_clones>:
   10308:	6549                	lui	a0,0x12
   1030a:	00050793          	mv	a5,a0
   1030e:	6749                	lui	a4,0x12
   10310:	00070593          	mv	a1,a4
   10314:	8d9d                	sub	a1,a1,a5
   10316:	4025d793          	sra	a5,a1,0x2
   1031a:	81fd                	srl	a1,a1,0x1f
   1031c:	95be                	add	a1,a1,a5
   1031e:	8585                	sra	a1,a1,0x1
   10320:	c599                	beqz	a1,1032e <register_tm_clones+0x26>
   10322:	00000793          	li	a5,0
   10326:	c781                	beqz	a5,1032e <register_tm_clones+0x26>
   10328:	00050513          	mv	a0,a0
   1032c:	8782                	jr	a5
   1032e:	8082                	ret

00010330 <__do_global_dtors_aux>:
   10330:	1141                	add	sp,sp,-16
   10332:	c422                	sw	s0,8(sp)
   10334:	8141c783          	lbu	a5,-2028(gp) # 12014 <completed.0>
   10338:	c606                	sw	ra,12(sp)
   1033a:	e789                	bnez	a5,10344 <__do_global_dtors_aux+0x14>
   1033c:	377d                	jal	102ea <deregister_tm_clones>
   1033e:	4785                	li	a5,1
   10340:	80f18a23          	sb	a5,-2028(gp) # 12014 <completed.0>
   10344:	40b2                	lw	ra,12(sp)
   10346:	4422                	lw	s0,8(sp)
   10348:	0141                	add	sp,sp,16
   1034a:	8082                	ret

0001034c <frame_dummy>:
   1034c:	bf75                	j	10308 <register_tm_clones>
	...

00010350 <recursion>:
   10350:	fe010113          	add	sp,sp,-32
   10354:	00112e23          	sw	ra,28(sp)
   10358:	00812c23          	sw	s0,24(sp)
   1035c:	00912a23          	sw	s1,20(sp)
   10360:	02010413          	add	s0,sp,32
   10364:	fea42623          	sw	a0,-20(s0)
   10368:	fec42703          	lw	a4,-20(s0)
   1036c:	fff00793          	li	a5,-1
   10370:	00f71663          	bne	a4,a5,1037c <recursion+0x2c>
   10374:	00100793          	li	a5,1
   10378:	0600006f          	j	103d8 <recursion+0x88>
   1037c:	84018713          	add	a4,gp,-1984 # 12040 <arr>
   10380:	fec42783          	lw	a5,-20(s0)
   10384:	00279793          	sll	a5,a5,0x2
   10388:	00f707b3          	add	a5,a4,a5
   1038c:	0007a483          	lw	s1,0(a5)
   10390:	fec42783          	lw	a5,-20(s0)
   10394:	fff78793          	add	a5,a5,-1
   10398:	00078513          	mv	a0,a5
   1039c:	fb5ff0ef          	jal	10350 <recursion>
   103a0:	00050793          	mv	a5,a0
   103a4:	02f48733          	mul	a4,s1,a5
   103a8:	000127b7          	lui	a5,0x12
   103ac:	01878693          	add	a3,a5,24 # 12018 <dp>
   103b0:	fec42783          	lw	a5,-20(s0)
   103b4:	00279793          	sll	a5,a5,0x2
   103b8:	00f687b3          	add	a5,a3,a5
   103bc:	00e7a023          	sw	a4,0(a5)
   103c0:	000127b7          	lui	a5,0x12
   103c4:	01878713          	add	a4,a5,24 # 12018 <dp>
   103c8:	fec42783          	lw	a5,-20(s0)
   103cc:	00279793          	sll	a5,a5,0x2
   103d0:	00f707b3          	add	a5,a4,a5
   103d4:	0007a783          	lw	a5,0(a5)
   103d8:	00078513          	mv	a0,a5
   103dc:	01c12083          	lw	ra,28(sp)
   103e0:	01812403          	lw	s0,24(sp)
   103e4:	01412483          	lw	s1,20(sp)
   103e8:	02010113          	add	sp,sp,32
   103ec:	00008067          	ret

000103f0 <main>:
   103f0:	fe010113          	add	sp,sp,-32
   103f4:	00112e23          	sw	ra,28(sp)
   103f8:	00812c23          	sw	s0,24(sp)
   103fc:	02010413          	add	s0,sp,32
   10400:	84018793          	add	a5,gp,-1984 # 12040 <arr>
   10404:	00100713          	li	a4,1
   10408:	00e7a023          	sw	a4,0(a5)
   1040c:	84018793          	add	a5,gp,-1984 # 12040 <arr>
   10410:	00200713          	li	a4,2
   10414:	00e7a223          	sw	a4,4(a5)
   10418:	84018793          	add	a5,gp,-1984 # 12040 <arr>
   1041c:	00400713          	li	a4,4
   10420:	00e7a423          	sw	a4,8(a5)
   10424:	84018793          	add	a5,gp,-1984 # 12040 <arr>
   10428:	00800713          	li	a4,8
   1042c:	00e7a623          	sw	a4,12(a5)
   10430:	84018793          	add	a5,gp,-1984 # 12040 <arr>
   10434:	01000713          	li	a4,16
   10438:	00e7a823          	sw	a4,16(a5)
   1043c:	84018793          	add	a5,gp,-1984 # 12040 <arr>
   10440:	02000713          	li	a4,32
   10444:	00e7aa23          	sw	a4,20(a5)
   10448:	84018793          	add	a5,gp,-1984 # 12040 <arr>
   1044c:	04000713          	li	a4,64
   10450:	00e7ac23          	sw	a4,24(a5)
   10454:	84018793          	add	a5,gp,-1984 # 12040 <arr>
   10458:	08000713          	li	a4,128
   1045c:	00e7ae23          	sw	a4,28(a5)
   10460:	84018793          	add	a5,gp,-1984 # 12040 <arr>
   10464:	10000713          	li	a4,256
   10468:	02e7a023          	sw	a4,32(a5)
   1046c:	84018793          	add	a5,gp,-1984 # 12040 <arr>
   10470:	20000713          	li	a4,512
   10474:	02e7a223          	sw	a4,36(a5)
   10478:	00900513          	li	a0,9
   1047c:	ed5ff0ef          	jal	10350 <recursion>
   10480:	fea42623          	sw	a0,-20(s0)
   10484:	00000793          	li	a5,0
   10488:	00078513          	mv	a0,a5
   1048c:	01c12083          	lw	ra,28(sp)
   10490:	01812403          	lw	s0,24(sp)
   10494:	02010113          	add	sp,sp,32
   10498:	00008067          	ret
